target datalayout = "e-m:e-p270:32:32-p271:32:32-p272:64:64-i64:64-i128:128-f80:128-n8:16:32:64-S128"
target triple = "x86_64-pc-linux-gnu"

%"class.zmq::dist_t" = type <{ %"class.zmq::array_t", i64, i64, i64, i8, [7 x i8] }>
%"class.zmq::array_t" = type { %"class.std::vector" }
%"class.std::vector" = type { %"struct.std::_Vector_base" }
%"struct.std::_Vector_base" = type { %"struct.std::_Vector_base<zmq::pipe_t *, std::allocator<zmq::pipe_t *>>::_Vector_impl" }
%"struct.std::_Vector_base<zmq::pipe_t *, std::allocator<zmq::pipe_t *>>::_Vector_impl" = type { %"struct.std::_Vector_base<zmq::pipe_t *, std::allocator<zmq::pipe_t *>>::_Vector_impl_data" }
%"struct.std::_Vector_base<zmq::pipe_t *, std::allocator<zmq::pipe_t *>>::_Vector_impl_data" = type { ptr, ptr, ptr }
%"class.zmq::array_item_t.7" = type <{ ptr, i32, [4 x i8] }>

; Function Attrs: inlinehint mustprogress nounwind uwtable
define linkonce_odr void @_ZSt4swapIPN3zmq6pipe_tEENSt9enable_ifIXsr6__and_ISt6__not_ISt15__is_tuple_likeIT_EESt21is_move_constructibleIS6_ESt18is_move_assignableIS6_EEE5valueEvE4typeERS6_SF_(ptr noundef nonnull align 8 dereferenceable(8) %0, ptr noundef nonnull align 8 dereferenceable(8) %1) #5 comdat {
  %3 = alloca ptr, align 8
  %4 = alloca ptr, align 8
  %5 = alloca ptr, align 8
  store ptr %0, ptr %3, align 8, !tbaa !58
  store ptr %1, ptr %4, align 8, !tbaa !58
  call void @llvm.lifetime.start.p0(i64 8, ptr %5) #14
  %6 = load ptr, ptr %3, align 8, !tbaa !58
  %7 = load ptr, ptr %6, align 8, !tbaa !26
  store ptr %7, ptr %5, align 8, !tbaa !26
  %8 = load ptr, ptr %4, align 8, !tbaa !58
  %9 = load ptr, ptr %8, align 8, !tbaa !26
  %10 = load ptr, ptr %3, align 8, !tbaa !58
  store ptr %9, ptr %10, align 8, !tbaa !26
  %11 = load ptr, ptr %5, align 8, !tbaa !26
  %12 = load ptr, ptr %4, align 8, !tbaa !58
  store ptr %11, ptr %12, align 8, !tbaa !26
  call void @llvm.lifetime.end.p0(i64 8, ptr %5) #14
  ret void
}

; Function Attrs: mustprogress nounwind uwtable
define linkonce_odr void @_ZN3zmq12array_item_tILi2EE15set_array_indexEi(ptr noundef nonnull align 8 dereferenceable(12) %0, i32 noundef %1) #0 comdat align 2 {
  %3 = alloca ptr, align 8
  %4 = alloca i32, align 4
  store ptr %0, ptr %3, align 8, !tbaa !66
  store i32 %1, ptr %4, align 4, !tbaa !36
  %5 = load ptr, ptr %3, align 8
  %6 = load i32, ptr %4, align 4, !tbaa !36
  %7 = getelementptr inbounds nuw %"class.zmq::array_item_t.7", ptr %5, i32 0, i32 1
  store i32 %6, ptr %7, align 8, !tbaa !68
  ret void
}

; Function Attrs: mustprogress nounwind uwtable
define linkonce_odr noundef nonnull align 8 dereferenceable(8) ptr @_ZNSt6vectorIPN3zmq6pipe_tESaIS2_EEixEm(ptr noundef nonnull align 8 dereferenceable(24) %0, i64 noundef %1) #0 comdat align 2 {
  %3 = alloca ptr, align 8
  %4 = alloca i64, align 8
  store ptr %0, ptr %3, align 8, !tbaa !43
  store i64 %1, ptr %4, align 8, !tbaa !30
  %5 = load ptr, ptr %3, align 8
  %6 = getelementptr inbounds nuw %"struct.std::_Vector_base", ptr %5, i32 0, i32 0
  %7 = getelementptr inbounds nuw %"struct.std::_Vector_base<zmq::pipe_t *, std::allocator<zmq::pipe_t *>>::_Vector_impl_data", ptr %6, i32 0, i32 0
  %8 = load ptr, ptr %7, align 8, !tbaa !53
  %9 = load i64, ptr %4, align 8, !tbaa !30
  %10 = getelementptr inbounds nuw ptr, ptr %8, i64 %9
  ret ptr %10
}

; Function Attrs: mustprogress nounwind uwtable
define linkonce_odr noundef i32 @_ZNK3zmq12array_item_tILi2EE15get_array_indexEv(ptr noundef nonnull align 8 dereferenceable(12) %0) #0 comdat align 2 {
  %2 = alloca ptr, align 8
  store ptr %0, ptr %2, align 8, !tbaa !66
  %3 = load ptr, ptr %2, align 8
  %4 = getelementptr inbounds nuw %"class.zmq::array_item_t.7", ptr %3, i32 0, i32 1
  %5 = load i32, ptr %4, align 8, !tbaa !68
  ret i32 %5
}

; Function Attrs: mustprogress nounwind uwtable
define linkonce_odr void @_ZN3zmq7array_tINS_6pipe_tELi2EE4swapEmm(ptr noundef nonnull align 8 dereferenceable(24) %0, i64 noundef %1, i64 noundef %2) #0 comdat align 2 {
  %4 = alloca ptr, align 8
  %5 = alloca i64, align 8
  %6 = alloca i64, align 8
  store ptr %0, ptr %4, align 8, !tbaa !22
  store i64 %1, ptr %5, align 8, !tbaa !30
  store i64 %2, ptr %6, align 8, !tbaa !30
  %7 = load ptr, ptr %4, align 8
  %8 = getelementptr inbounds nuw %"class.zmq::array_t", ptr %7, i32 0, i32 0
  %9 = load i64, ptr %5, align 8, !tbaa !30
  %10 = call noundef nonnull align 8 dereferenceable(8) ptr @_ZNSt6vectorIPN3zmq6pipe_tESaIS2_EEixEm(ptr noundef nonnull align 8 dereferenceable(24) %8, i64 noundef %9) #14
  %11 = load ptr, ptr %10, align 8, !tbaa !26
  %12 = icmp ne ptr %11, null
  br i1 %12, label %13, label %25

13:                                               ; preds = %3
  %14 = getelementptr inbounds nuw %"class.zmq::array_t", ptr %7, i32 0, i32 0
  %15 = load i64, ptr %5, align 8, !tbaa !30
  %16 = call noundef nonnull align 8 dereferenceable(8) ptr @_ZNSt6vectorIPN3zmq6pipe_tESaIS2_EEixEm(ptr noundef nonnull align 8 dereferenceable(24) %14, i64 noundef %15) #14
  %17 = load ptr, ptr %16, align 8, !tbaa !26
  %18 = icmp eq ptr %17, null
  br i1 %18, label %21, label %19

19:                                               ; preds = %13
  %20 = getelementptr inbounds i8, ptr %17, i64 40
  br label %21

21:                                               ; preds = %19, %13
  %22 = phi ptr [ %20, %19 ], [ null, %13 ]
  %23 = load i64, ptr %6, align 8, !tbaa !30
  %24 = trunc i64 %23 to i32
  call void @_ZN3zmq12array_item_tILi2EE15set_array_indexEi(ptr noundef nonnull align 8 dereferenceable(12) %22, i32 noundef %24)
  br label %25

25:                                               ; preds = %21, %3
  %26 = getelementptr inbounds nuw %"class.zmq::array_t", ptr %7, i32 0, i32 0
  %27 = load i64, ptr %6, align 8, !tbaa !30
  %28 = call noundef nonnull align 8 dereferenceable(8) ptr @_ZNSt6vectorIPN3zmq6pipe_tESaIS2_EEixEm(ptr noundef nonnull align 8 dereferenceable(24) %26, i64 noundef %27) #14
  %29 = load ptr, ptr %28, align 8, !tbaa !26
  %30 = icmp ne ptr %29, null
  br i1 %30, label %31, label %43

31:                                               ; preds = %25
  %32 = getelementptr inbounds nuw %"class.zmq::array_t", ptr %7, i32 0, i32 0
  %33 = load i64, ptr %6, align 8, !tbaa !30
  %34 = call noundef nonnull align 8 dereferenceable(8) ptr @_ZNSt6vectorIPN3zmq6pipe_tESaIS2_EEixEm(ptr noundef nonnull align 8 dereferenceable(24) %32, i64 noundef %33) #14
  %35 = load ptr, ptr %34, align 8, !tbaa !26
  %36 = icmp eq ptr %35, null
  br i1 %36, label %39, label %37

37:                                               ; preds = %31
  %38 = getelementptr inbounds i8, ptr %35, i64 40
  br label %39

39:                                               ; preds = %37, %31
  %40 = phi ptr [ %38, %37 ], [ null, %31 ]
  %41 = load i64, ptr %5, align 8, !tbaa !30
  %42 = trunc i64 %41 to i32
  call void @_ZN3zmq12array_item_tILi2EE15set_array_indexEi(ptr noundef nonnull align 8 dereferenceable(12) %40, i32 noundef %42)
  br label %43

43:                                               ; preds = %39, %25
  %44 = getelementptr inbounds nuw %"class.zmq::array_t", ptr %7, i32 0, i32 0
  %45 = load i64, ptr %5, align 8, !tbaa !30
  %46 = call noundef nonnull align 8 dereferenceable(8) ptr @_ZNSt6vectorIPN3zmq6pipe_tESaIS2_EEixEm(ptr noundef nonnull align 8 dereferenceable(24) %44, i64 noundef %45) #14
  %47 = getelementptr inbounds nuw %"class.zmq::array_t", ptr %7, i32 0, i32 0
  %48 = load i64, ptr %6, align 8, !tbaa !30
  %49 = call noundef nonnull align 8 dereferenceable(8) ptr @_ZNSt6vectorIPN3zmq6pipe_tESaIS2_EEixEm(ptr noundef nonnull align 8 dereferenceable(24) %47, i64 noundef %48) #14
  call void @_ZSt4swapIPN3zmq6pipe_tEENSt9enable_ifIXsr6__and_ISt6__not_ISt15__is_tuple_likeIT_EESt21is_move_constructibleIS6_ESt18is_move_assignableIS6_EEE5valueEvE4typeERS6_SF_(ptr noundef nonnull align 8 dereferenceable(8) %46, ptr noundef nonnull align 8 dereferenceable(8) %49) #14
  ret void
}

; Function Attrs: mustprogress uwtable
define linkonce_odr noundef i64 @_ZN3zmq7array_tINS_6pipe_tELi2EE5indexEPS1_(ptr noundef %0) #6 comdat align 2 {
  %2 = alloca ptr, align 8
  store ptr %0, ptr %2, align 8, !tbaa !26
  %3 = load ptr, ptr %2, align 8, !tbaa !26
  %4 = icmp eq ptr %3, null
  br i1 %4, label %7, label %5

5:                                                ; preds = %1
  %6 = getelementptr inbounds i8, ptr %3, i64 40
  br label %7

7:                                                ; preds = %5, %1
  %8 = phi ptr [ %6, %5 ], [ null, %1 ]
  %9 = call noundef i32 @_ZNK3zmq12array_item_tILi2EE15get_array_indexEv(ptr noundef nonnull align 8 dereferenceable(12) %8)
  %10 = sext i32 %9 to i64
  ret i64 %10
}

; Function Attrs: mustprogress uwtable
define void @_ZN3zmq6dist_t5matchEPNS_6pipe_tE(ptr noundef nonnull align 8 dereferenceable(49) %0, ptr noundef %1) #6 align 2 {
  %3 = alloca ptr, align 8
  %4 = alloca ptr, align 8
  store ptr %0, ptr %3, align 8, !tbaa !3
  store ptr %1, ptr %4, align 8, !tbaa !26
  %5 = load ptr, ptr %3, align 8
  %6 = load ptr, ptr %4, align 8, !tbaa !26
  %7 = call noundef i64 @_ZN3zmq7array_tINS_6pipe_tELi2EE5indexEPS1_(ptr noundef %6)
  %8 = getelementptr inbounds nuw %"class.zmq::dist_t", ptr %5, i32 0, i32 1
  %9 = load i64, ptr %8, align 8, !tbaa !8
  %10 = icmp ult i64 %7, %9
  br i1 %10, label %11, label %12

11:                                               ; preds = %2
  br label %28

12:                                               ; preds = %2
  %13 = load ptr, ptr %4, align 8, !tbaa !26
  %14 = call noundef i64 @_ZN3zmq7array_tINS_6pipe_tELi2EE5indexEPS1_(ptr noundef %13)
  %15 = getelementptr inbounds nuw %"class.zmq::dist_t", ptr %5, i32 0, i32 3
  %16 = load i64, ptr %15, align 8, !tbaa !20
  %17 = icmp uge i64 %14, %16
  br i1 %17, label %18, label %19

18:                                               ; preds = %12
  br label %28

19:                                               ; preds = %12
  %20 = getelementptr inbounds nuw %"class.zmq::dist_t", ptr %5, i32 0, i32 0
  %21 = load ptr, ptr %4, align 8, !tbaa !26
  %22 = call noundef i64 @_ZN3zmq7array_tINS_6pipe_tELi2EE5indexEPS1_(ptr noundef %21)
  %23 = getelementptr inbounds nuw %"class.zmq::dist_t", ptr %5, i32 0, i32 1
  %24 = load i64, ptr %23, align 8, !tbaa !8
  call void @_ZN3zmq7array_tINS_6pipe_tELi2EE4swapEmm(ptr noundef nonnull align 8 dereferenceable(24) %20, i64 noundef %22, i64 noundef %24)
  %25 = getelementptr inbounds nuw %"class.zmq::dist_t", ptr %5, i32 0, i32 1
  %26 = load i64, ptr %25, align 8, !tbaa !8
  %27 = add i64 %26, 1
  store i64 %27, ptr %25, align 8, !tbaa !8
  br label %28

28:                                               ; preds = %19, %18, %11
  ret void
}