; Function Attrs: mustprogress nofree norecurse nosync nounwind willreturn memory(readwrite, inaccessiblemem: write) uwtable
define void @_ZN3zmq6dist_t5matchEPNS_6pipe_tE(ptr noundef nonnull align 8 captures(none) dereferenceable(49) %0, ptr noundef readonly %1) local_unnamed_addr #8 align 2 {
  %3 = icmp ne ptr %1, null
  tail call void @llvm.assume(i1 %3)
  %4 = getelementptr inbounds nuw i8, ptr %1, i64 48
  %5 = load i32, ptr %4, align 8, !tbaa !25
  %6 = sext i32 %5 to i64
  %7 = getelementptr inbounds nuw i8, ptr %0, i64 24
  %8 = load i64, ptr %7, align 8, !tbaa !33
  %9 = icmp ule i64 %8, %6
  %10 = getelementptr inbounds nuw i8, ptr %0, i64 40
  %11 = load i64, ptr %10, align 8
  %.not = icmp ugt i64 %11, %6
  %or.cond = select i1 %9, i1 %.not, i1 false
  br i1 %or.cond, label %12, label %25

12:                                               ; preds = %2
  %13 = load ptr, ptr %0, align 8, !tbaa !12
  %14 = getelementptr inbounds nuw ptr, ptr %13, i64 %6
  %15 = load ptr, ptr %14, align 8, !tbaa !29
  %.not.i = icmp eq ptr %15, null
  br i1 %.not.i, label %19, label %16

16:                                               ; preds = %12
  %17 = trunc i64 %8 to i32
  %18 = getelementptr inbounds nuw i8, ptr %15, i64 48
  store i32 %17, ptr %18, align 8, !tbaa !25
  br label %19

19:                                               ; preds = %16, %12
  %20 = getelementptr inbounds nuw ptr, ptr %13, i64 %8
  %21 = load ptr, ptr %20, align 8, !tbaa !29
  %.not8.i = icmp eq ptr %21, null
  br i1 %.not8.i, label %_ZN3zmq7array_tINS_6pipe_tELi2EE4swapEmm.exit, label %22

22:                                               ; preds = %19
  %23 = getelementptr inbounds nuw i8, ptr %21, i64 48
  store i32 %5, ptr %23, align 8, !tbaa !25
  br label %_ZN3zmq7array_tINS_6pipe_tELi2EE4swapEmm.exit

_ZN3zmq7array_tINS_6pipe_tELi2EE4swapEmm.exit:    ; preds = %19, %22
  store ptr %21, ptr %14, align 8, !tbaa !29
  store ptr %15, ptr %20, align 8, !tbaa !29
  %24 = add i64 %8, 1
  store i64 %24, ptr %7, align 8, !tbaa !33
  br label %25

25:                                               ; preds = %2, %_ZN3zmq7array_tINS_6pipe_tELi2EE4swapEmm.exit
  ret void
}